target datalayout = "e-m:e-p270:32:32-p271:32:32-p272:64:64-i64:64-i128:128-f80:128-n8:16:32:64-S128"
target triple = "x86_64-pc-linux-gnu"

%struct.malloc_info = type { ptr, i32, i64, ptr, ptr }

@mi_head = global ptr null, align 8

; Function Attrs: nounwind uwtable
define ptr @stb_leakcheck_malloc(i64 noundef %0, ptr noundef %1, i32 noundef %2) #0 {
  %4 = alloca ptr, align 8
  %5 = alloca i64, align 8
  %6 = alloca ptr, align 8
  %7 = alloca i32, align 4
  %8 = alloca ptr, align 8
  %9 = alloca i32, align 4
  store i64 %0, ptr %5, align 8, !tbaa !3
  store ptr %1, ptr %6, align 8, !tbaa !7
  store i32 %2, ptr %7, align 4, !tbaa !10
  call void @llvm.lifetime.start.p0(i64 8, ptr %8) #5
  %10 = load i64, ptr %5, align 8, !tbaa !3
  %11 = add i64 %10, 40
  %12 = call noalias ptr @malloc(i64 noundef %11) #6
  store ptr %12, ptr %8, align 8, !tbaa !12
  %13 = load ptr, ptr %8, align 8, !tbaa !12
  %14 = icmp eq ptr %13, null
  br i1 %14, label %15, label %17

15:                                               ; preds = %3
  %16 = load ptr, ptr %8, align 8, !tbaa !12
  store ptr %16, ptr %4, align 8
  store i32 1, ptr %9, align 4
  br label %46

17:                                               ; preds = %3
  %18 = load ptr, ptr %6, align 8, !tbaa !7
  %19 = load ptr, ptr %8, align 8, !tbaa !12
  %20 = getelementptr inbounds nuw %struct.malloc_info, ptr %19, i32 0, i32 0
  store ptr %18, ptr %20, align 8, !tbaa !14
  %21 = load i32, ptr %7, align 4, !tbaa !10
  %22 = load ptr, ptr %8, align 8, !tbaa !12
  %23 = getelementptr inbounds nuw %struct.malloc_info, ptr %22, i32 0, i32 1
  store i32 %21, ptr %23, align 8, !tbaa !16
  %24 = load ptr, ptr @mi_head, align 8, !tbaa !12
  %25 = load ptr, ptr %8, align 8, !tbaa !12
  %26 = getelementptr inbounds nuw %struct.malloc_info, ptr %25, i32 0, i32 3
  store ptr %24, ptr %26, align 8, !tbaa !17
  %27 = load ptr, ptr @mi_head, align 8, !tbaa !12
  %28 = icmp ne ptr %27, null
  br i1 %28, label %29, label %35

29:                                               ; preds = %17
  %30 = load ptr, ptr %8, align 8, !tbaa !12
  %31 = load ptr, ptr %8, align 8, !tbaa !12
  %32 = getelementptr inbounds nuw %struct.malloc_info, ptr %31, i32 0, i32 3
  %33 = load ptr, ptr %32, align 8, !tbaa !17
  %34 = getelementptr inbounds nuw %struct.malloc_info, ptr %33, i32 0, i32 4
  store ptr %30, ptr %34, align 8, !tbaa !18
  br label %35

35:                                               ; preds = %29, %17
  %36 = load ptr, ptr %8, align 8, !tbaa !12
  %37 = getelementptr inbounds nuw %struct.malloc_info, ptr %36, i32 0, i32 4
  store ptr null, ptr %37, align 8, !tbaa !18
  %38 = load i64, ptr %5, align 8, !tbaa !3
  %39 = trunc i64 %38 to i32
  %40 = sext i32 %39 to i64
  %41 = load ptr, ptr %8, align 8, !tbaa !12
  %42 = getelementptr inbounds nuw %struct.malloc_info, ptr %41, i32 0, i32 2
  store i64 %40, ptr %42, align 8, !tbaa !19
  %43 = load ptr, ptr %8, align 8, !tbaa !12
  store ptr %43, ptr @mi_head, align 8, !tbaa !12
  %44 = load ptr, ptr %8, align 8, !tbaa !12
  %45 = getelementptr inbounds %struct.malloc_info, ptr %44, i64 1
  store ptr %45, ptr %4, align 8
  store i32 1, ptr %9, align 4
  br label %46

46:                                               ; preds = %35, %15
  call void @llvm.lifetime.end.p0(i64 8, ptr %8) #5
  %47 = load ptr, ptr %4, align 8
  ret ptr %47
}