; Function Attrs: mustprogress nofree nounwind willreturn memory(readwrite, argmem: write) uwtable
define ptr @stb_leakcheck_malloc(i64 noundef %0, ptr noundef %1, i32 noundef %2) local_unnamed_addr #0 {
  %4 = add i64 %0, 40
  %5 = tail call noalias ptr @malloc(i64 noundef %4) #8
  %6 = icmp eq ptr %5, null
  br i1 %6, label %18, label %7

7:                                                ; preds = %3
  store ptr %1, ptr %5, align 8, !tbaa !3
  %8 = getelementptr inbounds nuw i8, ptr %5, i64 8
  store i32 %2, ptr %8, align 8, !tbaa !12
  %9 = load ptr, ptr @mi_head, align 8, !tbaa !13
  %10 = getelementptr inbounds nuw i8, ptr %5, i64 24
  store ptr %9, ptr %10, align 8, !tbaa !14
  %.not = icmp eq ptr %9, null
  br i1 %.not, label %13, label %11

11:                                               ; preds = %7
  %12 = getelementptr inbounds nuw i8, ptr %9, i64 32
  store ptr %5, ptr %12, align 8, !tbaa !15
  br label %13

13:                                               ; preds = %11, %7
  %14 = getelementptr inbounds nuw i8, ptr %5, i64 32
  store ptr null, ptr %14, align 8, !tbaa !15
  %sext = shl i64 %0, 32
  %15 = ashr exact i64 %sext, 32
  %16 = getelementptr inbounds nuw i8, ptr %5, i64 16
  store i64 %15, ptr %16, align 8, !tbaa !16
  store ptr %5, ptr @mi_head, align 8, !tbaa !13
  %17 = getelementptr inbounds nuw i8, ptr %5, i64 40
  br label %18

18:                                               ; preds = %3, %13
  %.0 = phi ptr [ %17, %13 ], [ null, %3 ]
  ret ptr %.0
}